; Function Attrs: mustprogress nofree norecurse nosync nounwind willreturn memory(readwrite, inaccessiblemem: none) uwtable
define hidden void @VP8SetSkip(ptr noundef readonly captures(none) %0, i32 noundef %1) local_unnamed_addr #0 {
  %3 = getelementptr inbounds nuw i8, ptr %0, i64 48
  %4 = load ptr, ptr %3, align 8, !tbaa !38
  %5 = trunc i32 %1 to i8
  %6 = load i8, ptr %4, align 4
  %7 = shl i8 %5, 4
  %8 = and i8 %7, 16
  %9 = and i8 %6, -17
  %10 = or disjoint i8 %9, %8
  store i8 %10, ptr %4, align 4
  ret void
}